; Function Attrs: mustprogress nofree norecurse nosync nounwind willreturn memory(read, argmem: readwrite, inaccessiblemem: none) uwtable
define hidden noundef ptr @_ZN10ODDLParser13OpenDDLParser7popNodeEv(ptr noundef nonnull align 8 captures(none) dereferenceable(88) %0) local_unnamed_addr #19 align 2 {
  %2 = getelementptr inbounds nuw i8, ptr %0, i64 56
  %3 = load ptr, ptr %2, align 8
  %4 = getelementptr inbounds nuw i8, ptr %0, i64 64
  %5 = load ptr, ptr %4, align 8
  %6 = icmp eq ptr %3, %5
  br i1 %6, label %10, label %_ZN10ODDLParser13OpenDDLParser3topEv.exit

_ZN10ODDLParser13OpenDDLParser3topEv.exit:        ; preds = %1
  %7 = getelementptr inbounds i8, ptr %5, i64 -8
  %8 = load ptr, ptr %7, align 8
  %9 = getelementptr inbounds i8, ptr %5, i64 -8
  store ptr %9, ptr %4, align 8
  br label %10

10:                                               ; preds = %1, %_ZN10ODDLParser13OpenDDLParser3topEv.exit
  %.0 = phi ptr [ %8, %_ZN10ODDLParser13OpenDDLParser3topEv.exit ], [ null, %1 ]
  ret ptr %.0
}